target datalayout = "e-m:e-p270:32:32-p271:32:32-p272:64:64-i64:64-i128:128-f80:128-n8:16:32:64-S128"
target triple = "x86_64-pc-linux-gnu"

%struct.hashmap_entry = type { ptr, i32 }
%struct.refspec_item = type { i8, ptr, ptr, ptr }
%struct.branch = type { %struct.hashmap_entry, ptr, ptr, ptr, ptr, ptr, ptr, i32, i32, ptr }

@.str.85 = private unnamed_addr constant [1 x i8] zeroinitializer, align 1
@.str.100 = private unnamed_addr constant [127 x i8] c"\0ATo have this happen automatically for branches without a tracking\0Aupstream, see 'push.autoSetupRemote' in 'git help config'.\0A\00", align 1
@.str.101 = private unnamed_addr constant [147 x i8] c"The current branch %s has no upstream branch.\0ATo push the current branch and set the remote as upstream, use\0A\0A    git push --set-upstream %s %s\0A%s\00", align 1
@.str.102 = private unnamed_addr constant [72 x i8] c"The current branch %s has multiple upstream branches, refusing to push.\00", align 1

; Function Attrs: nounwind uwtable
define internal ptr @get_upstream_ref(i32 noundef %0, ptr noundef %1, ptr noundef %2) #0 {
  %4 = alloca ptr, align 8
  %5 = alloca i32, align 4
  %6 = alloca ptr, align 8
  %7 = alloca ptr, align 8
  %8 = alloca ptr, align 8
  store i32 %0, ptr %5, align 4, !tbaa !4
  store ptr %1, ptr %6, align 8, !tbaa !82
  store ptr %2, ptr %7, align 8, !tbaa !11
  %9 = load ptr, ptr %6, align 8, !tbaa !82
  %10 = getelementptr inbounds nuw %struct.branch, ptr %9, i32 0, i32 7
  %11 = load i32, ptr %10, align 8, !tbaa !84
  %12 = icmp eq i32 %11, 0
  br i1 %12, label %13, label %21

13:                                               ; preds = %3
  %14 = load i32, ptr %5, align 4, !tbaa !4
  %15 = and i32 %14, 131072
  %16 = icmp ne i32 %15, 0
  br i1 %16, label %17, label %21

17:                                               ; preds = %13
  %18 = load ptr, ptr %6, align 8, !tbaa !82
  %19 = getelementptr inbounds nuw %struct.branch, ptr %18, i32 0, i32 2
  %20 = load ptr, ptr %19, align 8, !tbaa !90
  store ptr %20, ptr %4, align 8
  br label %70

21:                                               ; preds = %13, %3
  %22 = load ptr, ptr %6, align 8, !tbaa !82
  %23 = getelementptr inbounds nuw %struct.branch, ptr %22, i32 0, i32 7
  %24 = load i32, ptr %23, align 8, !tbaa !84
  %25 = icmp ne i32 %24, 0
  br i1 %25, label %26, label %36

26:                                               ; preds = %21
  %27 = load ptr, ptr %6, align 8, !tbaa !82
  %28 = getelementptr inbounds nuw %struct.branch, ptr %27, i32 0, i32 6
  %29 = load ptr, ptr %28, align 8, !tbaa !87
  %30 = icmp ne ptr %29, null
  br i1 %30, label %31, label %36

31:                                               ; preds = %26
  %32 = load ptr, ptr %6, align 8, !tbaa !82
  %33 = getelementptr inbounds nuw %struct.branch, ptr %32, i32 0, i32 3
  %34 = load ptr, ptr %33, align 8, !tbaa !105
  %35 = icmp ne ptr %34, null
  br i1 %35, label %52, label %36

36:                                               ; preds = %31, %26, %21
  call void @llvm.lifetime.start.p0(i64 8, ptr %8) #9
  store ptr @.str.85, ptr %8, align 8, !tbaa !11
  %37 = load i32, ptr %5, align 4, !tbaa !4
  %38 = and i32 %37, 131072
  %39 = icmp ne i32 %38, 0
  br i1 %39, label %42, label %40

40:                                               ; preds = %36
  %41 = call ptr @_(ptr noundef @.str.100)
  store ptr %41, ptr %8, align 8, !tbaa !11
  br label %42

42:                                               ; preds = %40, %36
  %43 = call ptr @_(ptr noundef @.str.101)
  %44 = load ptr, ptr %6, align 8, !tbaa !82
  %45 = getelementptr inbounds nuw %struct.branch, ptr %44, i32 0, i32 1
  %46 = load ptr, ptr %45, align 8, !tbaa !91
  %47 = load ptr, ptr %7, align 8, !tbaa !11
  %48 = load ptr, ptr %6, align 8, !tbaa !82
  %49 = getelementptr inbounds nuw %struct.branch, ptr %48, i32 0, i32 1
  %50 = load ptr, ptr %49, align 8, !tbaa !91
  %51 = load ptr, ptr %8, align 8, !tbaa !11
  call void (ptr, ...) @die(ptr noundef %43, ptr noundef %46, ptr noundef %47, ptr noundef %50, ptr noundef %51) #10
  unreachable

52:                                               ; preds = %31
  %53 = load ptr, ptr %6, align 8, !tbaa !82
  %54 = getelementptr inbounds nuw %struct.branch, ptr %53, i32 0, i32 7
  %55 = load i32, ptr %54, align 8, !tbaa !84
  %56 = icmp ne i32 %55, 1
  br i1 %56, label %57, label %62

57:                                               ; preds = %52
  %58 = call ptr @_(ptr noundef @.str.102)
  %59 = load ptr, ptr %6, align 8, !tbaa !82
  %60 = getelementptr inbounds nuw %struct.branch, ptr %59, i32 0, i32 1
  %61 = load ptr, ptr %60, align 8, !tbaa !91
  call void (ptr, ...) @die(ptr noundef %58, ptr noundef %61) #10
  unreachable

62:                                               ; preds = %52
  %63 = load ptr, ptr %6, align 8, !tbaa !82
  %64 = getelementptr inbounds nuw %struct.branch, ptr %63, i32 0, i32 6
  %65 = load ptr, ptr %64, align 8, !tbaa !87
  %66 = getelementptr inbounds ptr, ptr %65, i64 0
  %67 = load ptr, ptr %66, align 8, !tbaa !88
  %68 = getelementptr inbounds nuw %struct.refspec_item, ptr %67, i32 0, i32 1
  %69 = load ptr, ptr %68, align 8, !tbaa !79
  store ptr %69, ptr %4, align 8
  br label %70

70:                                               ; preds = %62, %17
  %71 = load ptr, ptr %4, align 8
  ret ptr %71
}