; Function Attrs: nounwind uwtable
define internal fastcc ptr @get_upstream_ref(i32 noundef %0, ptr noundef nonnull readonly captures(none) %1, ptr noundef %2) unnamed_addr #0 {
  %4 = getelementptr inbounds nuw i8, ptr %1, i64 64
  %5 = load i32, ptr %4, align 8, !tbaa !43
  %6 = icmp ne i32 %5, 0
  %7 = and i32 %0, 131072
  %.not = icmp eq i32 %7, 0
  %or.cond = or i1 %.not, %6
  br i1 %or.cond, label %10, label %8

8:                                                ; preds = %3
  %9 = getelementptr inbounds nuw i8, ptr %1, i64 24
  br label %33

10:                                               ; preds = %3
  %.not17 = icmp eq i32 %5, 0
  br i1 %.not17, label %17, label %11

11:                                               ; preds = %10
  %12 = getelementptr inbounds nuw i8, ptr %1, i64 56
  %13 = load ptr, ptr %12, align 8, !tbaa !46
  %.not18 = icmp eq ptr %13, null
  br i1 %.not18, label %17, label %14

14:                                               ; preds = %11
  %15 = getelementptr inbounds nuw i8, ptr %1, i64 32
  %16 = load ptr, ptr %15, align 8, !tbaa !81
  %.not19 = icmp eq ptr %16, null
  br i1 %.not19, label %17, label %25

17:                                               ; preds = %14, %11, %10
  br i1 %.not, label %18, label %_.exit

18:                                               ; preds = %17
  %19 = load i32, ptr @git_gettext_enabled, align 4, !tbaa !4
  %.not4.i = icmp eq i32 %19, 0
  br i1 %.not4.i, label %_.exit, label %20

20:                                               ; preds = %18
  %21 = tail call ptr @dcgettext(ptr noundef null, ptr noundef nonnull @.str.100, i32 noundef 5) #14
  br label %_.exit

_.exit:                                           ; preds = %20, %18, %17
  %.0 = phi ptr [ @.str.85, %17 ], [ %21, %20 ], [ @.str.100, %18 ]
  %22 = tail call fastcc ptr @_(ptr noundef nonnull @.str.101)
  %23 = getelementptr inbounds nuw i8, ptr %1, i64 16
  %24 = load ptr, ptr %23, align 8, !tbaa !56
  tail call void (ptr, ...) @die(ptr noundef %22, ptr noundef %24, ptr noundef %2, ptr noundef %24, ptr noundef %.0) #15
  unreachable

25:                                               ; preds = %14
  %.not21 = icmp eq i32 %5, 1
  br i1 %.not21, label %30, label %26

26:                                               ; preds = %25
  %27 = tail call fastcc ptr @_(ptr noundef nonnull @.str.102)
  %28 = getelementptr inbounds nuw i8, ptr %1, i64 16
  %29 = load ptr, ptr %28, align 8, !tbaa !56
  tail call void (ptr, ...) @die(ptr noundef %27, ptr noundef %29) #15
  unreachable

30:                                               ; preds = %25
  %31 = load ptr, ptr %13, align 8, !tbaa !47
  %32 = getelementptr inbounds nuw i8, ptr %31, i64 8
  br label %33

33:                                               ; preds = %30, %8
  %.014.in = phi ptr [ %9, %8 ], [ %32, %30 ]
  %.014 = load ptr, ptr %.014.in, align 8, !tbaa !8
  ret ptr %.014
}